target datalayout = "e-m:e-p270:32:32-p271:32:32-p272:64:64-i64:64-i128:128-f80:128-n8:16:32:64-S128"
target triple = "x86_64-pc-linux-gnu"

%struct.slurm_select_ops_t = type { ptr, ptr, ptr, ptr, ptr, ptr, ptr, ptr, ptr, ptr, ptr, ptr, ptr, ptr, ptr, ptr, ptr, ptr, ptr, ptr, ptr, ptr, ptr, ptr, ptr, ptr, ptr, ptr, ptr, ptr, ptr, ptr }
%struct.dynamic_plugin_data = type { ptr, i32 }

@ops = internal global ptr null, align 8
@select_context_default = internal global i32 -1, align 4
@.str.29 = private unnamed_addr constant [39 x i8] c"%s: protocol_version %hu not supported\00", align 1
@__func__.select_g_select_nodeinfo_pack = private unnamed_addr constant [30 x i8] c"select_g_select_nodeinfo_pack\00", align 1

; Function Attrs: nounwind uwtable
define dso_local i32 @select_g_select_nodeinfo_pack(ptr noundef %0, ptr noundef %1, i16 noundef zeroext %2) #0 {
  %4 = alloca ptr, align 8
  %5 = alloca ptr, align 8
  %6 = alloca i16, align 2
  %7 = alloca ptr, align 8
  %8 = alloca i32, align 4
  store ptr %0, ptr %4, align 8
  store ptr %1, ptr %5, align 8
  store i16 %2, ptr %6, align 2
  call void @llvm.lifetime.start.p0(i64 8, ptr %7) #7
  store ptr null, ptr %7, align 8
  call void @llvm.lifetime.start.p0(i64 4, ptr %8) #7
  %9 = load ptr, ptr %4, align 8
  %10 = icmp ne ptr %9, null
  br i1 %10, label %11, label %18

11:                                               ; preds = %3
  %12 = load ptr, ptr %4, align 8
  %13 = getelementptr inbounds nuw %struct.dynamic_plugin_data, ptr %12, i32 0, i32 0
  %14 = load ptr, ptr %13, align 8
  store ptr %14, ptr %7, align 8
  %15 = load ptr, ptr %4, align 8
  %16 = getelementptr inbounds nuw %struct.dynamic_plugin_data, ptr %15, i32 0, i32 1
  %17 = load i32, ptr %16, align 8
  store i32 %17, ptr %8, align 4
  br label %20

18:                                               ; preds = %3
  %19 = load i32, ptr @select_context_default, align 4
  store i32 %19, ptr %8, align 4
  br label %20

20:                                               ; preds = %18, %11
  %21 = load i16, ptr %6, align 2
  %22 = zext i16 %21 to i32
  %23 = icmp sge i32 %22, 10240
  br i1 %23, label %24, label %33

24:                                               ; preds = %20
  %25 = load ptr, ptr @ops, align 8
  %26 = load i32, ptr %8, align 4
  %27 = zext i32 %26 to i64
  %28 = getelementptr inbounds nuw %struct.slurm_select_ops_t, ptr %25, i64 %27
  %29 = getelementptr inbounds nuw %struct.slurm_select_ops_t, ptr %28, i32 0, i32 0
  %30 = load ptr, ptr %29, align 8
  %31 = load i32, ptr %30, align 4
  %32 = load ptr, ptr %5, align 8
  call void @pack32(i32 noundef %31, ptr noundef %32)
  br label %37

33:                                               ; preds = %20
  %34 = load i16, ptr %6, align 2
  %35 = zext i16 %34 to i32
  %36 = call i32 (ptr, ...) @error(ptr noundef @.str.29, ptr noundef @__func__.select_g_select_nodeinfo_pack, i32 noundef %35)
  br label %37

37:                                               ; preds = %33, %24
  %38 = load ptr, ptr @ops, align 8
  %39 = load i32, ptr %8, align 4
  %40 = zext i32 %39 to i64
  %41 = getelementptr inbounds nuw %struct.slurm_select_ops_t, ptr %38, i64 %40
  %42 = getelementptr inbounds nuw %struct.slurm_select_ops_t, ptr %41, i32 0, i32 16
  %43 = load ptr, ptr %42, align 8
  %44 = load ptr, ptr %7, align 8
  %45 = load ptr, ptr %5, align 8
  %46 = load i16, ptr %6, align 2
  %47 = call i32 %43(ptr noundef %44, ptr noundef %45, i16 noundef zeroext %46)
  call void @llvm.lifetime.end.p0(i64 4, ptr %8) #7
  call void @llvm.lifetime.end.p0(i64 8, ptr %7) #7
  ret i32 %47
}